Certificate:
    Data:
        Version: 1 (0x0)
        Serial Number: 1 (0x1)
        Signature Algorithm: sha512WithRSAEncryption
        Issuer: O=Rahisi Technologies, OU=Rahisi Technologies/emailAddress=bibhuti.kar@gmail.com, L=Bangalore, ST=KA, C=IN, CN=Rahisi
        Validity
            Not Before: Mar 19 12:59:45 2018 GMT
            Not After : Mar 19 12:59:45 2019 GMT
        Subject: C=IN, ST=KA, O=Rahisi Technologies, OU=Rahisi Technologies, CN=Rahisi
        Subject Public Key Info:
            Public Key Algorithm: rsaEncryption
            RSA Public Key: (4096 bit)
                Modulus (4096 bit):
                    00:af:1e:5b:44:78:4c:39:c8:26:77:95:0d:77:6a:
                    cf:5e:a6:db:1f:c5:13:d9:91:b0:f6:0f:7f:c4:54:
                    e1:6b:6b:66:f4:d1:19:90:19:1c:e3:6a:eb:87:2d:
                    f1:d6:62:c9:60:b7:97:da:3b:2f:07:fd:44:c4:89:
                    83:d9:2f:d8:f7:b2:bd:2b:63:1b:dd:a0:d5:7e:0f:
                    68:62:2d:2c:ba:e7:68:96:39:cd:e3:85:e5:11:2f:
                    f2:f5:62:89:46:67:51:ec:73:71:3c:7d:1f:a0:19:
                    c7:37:16:6a:6d:66:b0:6e:46:b7:20:a9:0b:84:78:
                    d2:61:9e:b0:05:29:48:21:ff:06:f8:cb:7b:74:c4:
                    be:6a:0b:1b:cb:ad:9c:54:92:cd:22:52:f8:1d:14:
                    7a:31:6d:b2:b2:4b:bd:be:dc:e1:c6:83:8a:8b:b1:
                    2c:96:fc:7d:68:bf:9c:eb:4e:f9:0f:6a:3a:7f:76:
                    2f:4a:32:3f:81:75:5e:cf:db:ed:74:80:d7:3b:bf:
                    e8:aa:56:b2:ec:cd:12:2d:1c:8b:0e:93:90:d8:5e:
                    96:a9:0b:8b:61:45:a8:49:d1:af:87:50:43:ab:c3:
                    8b:27:44:27:66:05:69:1c:2a:07:4e:23:d5:89:3b:
                    bb:1f:d2:71:e8:0d:10:fe:c0:fc:33:2a:e6:64:cd:
                    dc:cf:66:41:f5:0d:bc:ee:3a:25:c3:99:c1:7e:ef:
                    7b:f5:e3:8d:d0:a1:29:7a:44:61:b9:2b:04:97:39:
                    05:e1:38:a7:f7:e4:c1:57:01:4d:95:c9:dd:19:e3:
                    f8:75:4c:4f:20:6f:f9:44:e9:bc:b0:0d:0d:70:a7:
                    0a:10:86:61:41:ba:d3:a1:f8:bd:be:4a:c2:9c:3c:
                    68:f1:84:8a:c4:71:6e:52:70:e6:bc:58:a0:ce:0d:
                    2e:c7:bf:f2:23:49:7f:fe:72:ab:61:46:72:3f:e0:
                    97:7b:94:2a:64:77:09:48:24:6f:27:7a:d3:66:17:
                    d7:9a:47:fd:d2:1c:6e:69:5d:d6:ec:57:37:17:8c:
                    78:e0:7c:43:ae:0a:af:15:02:16:19:61:91:22:99:
                    58:36:9c:d7:b8:8a:b0:2e:9e:bb:d0:fc:61:0c:db:
                    1b:44:ee:25:d2:6b:6e:74:2d:3e:6d:9b:ad:f9:df:
                    c1:54:77:d5:c6:c0:da:9a:5b:c3:d1:d4:d5:67:c0:
                    57:25:c2:e3:b8:2f:38:f8:17:30:25:a7:95:c6:72:
                    30:31:ed:01:70:09:c4:a3:aa:73:92:97:ac:b4:f3:
                    95:82:ff:53:51:51:74:b6:a5:a8:8a:12:b0:28:ad:
                    b8:ea:95:6c:b6:4b:4b:20:9d:0b:89:61:0d:89:fc:
                    f2:51:af
                Exponent: 65537 (0x10001)
    Signature Algorithm: sha512WithRSAEncryption
        c1:cd:7a:4b:ea:68:52:7f:27:d0:63:5f:b1:c4:ba:d2:ae:de:
        16:b7:3b:cd:bb:56:58:51:48:86:fb:49:dc:ad:4a:9f:96:04:
        05:34:fb:5d:3f:43:ed:31:44:41:33:79:87:ec:42:fe:9b:81:
        aa:40:00:9c:29:04:bc:95:b3:4d:d3:5e:7a:41:2d:32:f6:bc:
        2a:71:2c:b2:06:55:66:35:5d:b6:ab:45:b5:0a:42:83:4e:05:
        de:bc:c6:2f:9e:09:ee:54:f8:5a:db:4b:4b:43:31:67:9d:e2:
        99:4d:59:6c:d0:a0:14:66:f4:8c:bd:25:07:21:eb:c6:5c:e5:
        ee:5a:5c:92:e7:df:8a:67:2f:38:cf:cb:26:e4:09:ce:53:f3:
        f3:95:f3:cc:cb:17:bf:ff:c1:4b:8c:af:cb:c2:e4:30:7e:bc:
        36:49:2d:8a:3f:07:e8:bb:1b:c6:b7:c2:ca:86:4f:ca:ee:a8:
        d4:32:cd:fd:d4:fb:84:ab:b9:fe:e1:b1:ac:d3:fd:9a:19:0b:
        69:95:72:fb:72:f5:6e:2e:89:91:47:41:e9:43:af:51:3b:32:
        c6:dd:82:3f:f0:60:92:85:76:b2:d6:b8:bf:d1:d2:3b:1c:5c:
        6e:48:d2:7c:1e:d7:ea:97:67:12:91:72:42:7b:f8:e7:18:61:
        ca:09:e1:c0:9e:a2:ed:bb:b2:8a:7b:01:65:d1:84:e3:bc:bd:
        df:9e:db:bd:44:e3:6f:8f:dd:8f:63:dc:03:f9:0b:bd:a9:ab:
        33:9e:1d:ba:57:00:97:2a:9a:1e:37:2e:f8:ce:3f:03:32:2e:
        2d:98:b3:a2:7f:21:bc:b1:41:37:04:d7:b0:c8:6d:8c:44:f9:
        12:ec:d0:5d:db:8e:0c:92:f4:0d:ba:72:8a:12:cd:9f:72:cc:
        8e:76:87:48:06:0f:11:9f:bd:7f:e0:d0:6f:89:c0:25:9a:3d:
        ab:89:73:8e:5b:4d:5a:38:90:f4:c6:b7:1e:e6:4d:eb:6b:18:
        9f:07:b7:36:f2:ca:62:1f:9e:39:9b:02:24:b9:00:16:80:5e:
        39:c6:7e:c5:04:46:f3:e3:af:68:61:f4:e1:b7:76:f5:0b:b9:
        b8:a2:9b:c4:25:1b:47:5f:34:ec:35:bd:b1:f1:16:db:e1:e1:
        fd:7d:3d:1c:67:17:56:e2:33:7e:fe:01:d2:f4:df:e7:12:73:
        fa:fe:55:bc:50:8a:c8:7a:3e:32:3f:14:be:c5:3f:27:9e:6e:
        82:4e:f6:2b:f6:d6:52:25:65:bc:ff:78:02:c9:f4:81:2f:95:
        53:2a:62:8d:04:8c:1c:97:f2:c6:82:58:ec:79:16:c7:c1:45:
        f4:c5:88:47:23:85:8f:cd
-----BEGIN CERTIFICATE-----
MIIFfTCCA2UCAQEwDQYJKoZIhvcNAQENBQAwgaExHDAaBgNVBAoTE1JhaGlzaSBU
ZWNobm9sb2dpZXMxHDAaBgNVBAsTE1JhaGlzaSBUZWNobm9sb2dpZXMxJDAiBgkq
hkiG9w0BCQEWFWJpYmh1dGkua2FyQGdtYWlsLmNvbTESMBAGA1UEBxMJQmFuZ2Fs
b3JlMQswCQYDVQQIEwJLQTELMAkGA1UEBhMCSU4xDzANBgNVBAMTBlJhaGlzaTAe
Fw0xODAzMTkxMjU5NDVaFw0xOTAzMTkxMjU5NDVaMGcxCzAJBgNVBAYTAklOMQsw
CQYDVQQIEwJLQTEcMBoGA1UEChMTUmFoaXNpIFRlY2hub2xvZ2llczEcMBoGA1UE
CxMTUmFoaXNpIFRlY2hub2xvZ2llczEPMA0GA1UEAxMGUmFoaXNpMIICIjANBgkq
hkiG9w0BAQEFAAOCAg8AMIICCgKCAgEArx5bRHhMOcgmd5UNd2rPXqbbH8UT2ZGw
9g9/xFTha2tm9NEZkBkc42rrhy3x1mLJYLeX2jsvB/1ExImD2S/Y97K9K2Mb3aDV
fg9oYi0suudoljnN44XlES/y9WKJRmdR7HNxPH0foBnHNxZqbWawbka3IKkLhHjS
YZ6wBSlIIf8G+Mt7dMS+agsby62cVJLNIlL4HRR6MW2ysku9vtzhxoOKi7Eslvx9
aL+c6075D2o6f3YvSjI/gXVez9vtdIDXO7/oqlay7M0SLRyLDpOQ2F6WqQuLYUWo
SdGvh1BDq8OLJ0QnZgVpHCoHTiPViTu7H9Jx6A0Q/sD8MyrmZM3cz2ZB9Q287jol
w5nBfu979eON0KEpekRhuSsElzkF4Tin9+TBVwFNlcndGeP4dUxPIG/5ROm8sA0N
cKcKEIZhQbrTofi9vkrCnDxo8YSKxHFuUnDmvFigzg0ux7/yI0l//nKrYUZyP+CX
e5QqZHcJSCRvJ3rTZhfXmkf90hxuaV3W7Fc3F4x44HxDrgqvFQIWGWGRIplYNpzX
uIqwLp670PxhDNsbRO4l0mtudC0+bZut+d/BVHfVxsDamlvD0dTVZ8BXJcLjuC84
+BcwJaeVxnIwMe0BcAnEo6pzkpestPOVgv9TUVF0tqWoihKwKK246pVstktLIJ0L
iWENifzyUa8CAwEAATANBgkqhkiG9w0BAQ0FAAOCAgEAwc16S+poUn8n0GNfscS6
0q7eFrc7zbtWWFFIhvtJ3K1Kn5YEBTT7XT9D7TFEQTN5h+xC/puBqkAAnCkEvJWz
TdNeekEtMva8KnEssgZVZjVdtqtFtQpCg04F3rzGL54J7lT4WttLS0MxZ53imU1Z
bNCgFGb0jL0lByHrxlzl7lpckuffimcvOM/LJuQJzlPz85XzzMsXv//BS4yvy8Lk
MH68Nkktij8H6LsbxrfCyoZPyu6o1DLN/dT7hKu5/uGxrNP9mhkLaZVy+3L1bi6J
kUdB6UOvUTsyxt2CP/BgkoV2sta4v9HSOxxcbkjSfB7X6pdnEpFyQnv45xhhygnh
wJ6i7buyinsBZdGE47y9357bvUTjb4/dj2PcA/kLvamrM54dulcAlyqaHjcu+M4/
AzIuLZizon8hvLFBNwTXsMhtjET5EuzQXduODJL0DbpyihLNn3LMjnaHSAYPEZ+9
f+DQb4nAJZo9q4lzjltNWjiQ9Ma3HuZN62sYnwe3NvLKYh+eOZsCJLkAFoBeOcZ+
xQRG8+OvaGH04bd29Qu5uKKbxCUbR1807DW9sfEW2+Hh/X09HGcXVuIzfv4B0vTf
5xJz+v5VvFCKyHo+Mj8UvsU/J55ugk72K/bWUiVlvP94Asn0gS+VUypijQSMHJfy
xoJY7HkWx8FF9MWIRyOFj80=
-----END CERTIFICATE-----
